Certificate:
    Data:
        Version: 3 (0x2)
        Serial Number: 2 (0x2)
    Signature Algorithm: sha256WithRSAEncryption
        Issuer: C=CN, ST=SH, L=shanghai, O=sh, OU=sh, CN=server/name=server/emailAddress=sh@cn.cn
        Validity
            Not Before: Dec  5 03:00:55 2015 GMT
            Not After : Dec  2 03:00:55 2025 GMT
        Subject: C=CN, ST=SH, L=shanghai, O=sh, OU=sh, CN=client/name=server/emailAddress=sh@cn.cn
        Subject Public Key Info:
            Public Key Algorithm: rsaEncryption
                Public-Key: (2048 bit)
                Modulus:
                    00:a7:13:20:87:7a:a1:6b:e2:63:4a:e2:23:56:19:
                    0f:13:a3:0f:4e:28:fc:72:6a:bc:17:ae:73:c2:88:
                    54:86:7f:8a:7d:36:39:60:97:35:5d:39:12:3f:89:
                    5e:36:f1:6f:be:3e:ac:6d:93:d6:9b:03:eb:1c:87:
                    8f:95:4e:45:de:94:04:95:9e:ac:a3:f5:22:80:44:
                    53:99:d4:88:5e:d0:0e:d8:e9:ac:c4:bf:61:b1:93:
                    14:59:f3:8b:be:0f:cb:93:9f:ba:3f:74:e2:ca:8d:
                    3e:eb:24:25:9e:bb:6f:86:d6:9e:33:d0:5d:4c:db:
                    ac:02:21:3c:42:79:35:dd:59:97:e4:bf:d3:87:14:
                    b1:78:88:3e:4e:79:54:0b:fa:09:7b:52:7a:dd:c5:
                    4c:12:0f:81:ae:4f:55:e2:2a:75:a5:34:ed:0c:e3:
                    77:f3:bb:f9:b8:89:6e:8b:39:99:95:95:36:f5:05:
                    75:dc:d2:9e:99:9f:40:ed:85:7a:b1:06:01:a4:b5:
                    8f:22:df:ec:ff:81:3d:e3:8f:05:9e:c8:ad:7f:aa:
                    4b:ff:c0:c4:0b:19:af:15:fc:e8:7c:ff:33:34:f5:
                    d2:98:07:10:69:95:f8:95:2d:11:10:7b:20:e3:4b:
                    f4:32:da:e4:39:c9:7f:da:8b:75:30:9d:39:09:8e:
                    02:9b
                Exponent: 65537 (0x10001)
        X509v3 extensions:
            X509v3 Basic Constraints: 
                CA:FALSE
            Netscape Comment: 
                Easy-RSA Generated Certificate
            X509v3 Subject Key Identifier: 
                9B:F7:AC:B8:18:AE:02:00:9B:15:28:2B:6B:54:6E:B5:55:D8:44:D7
            X509v3 Authority Key Identifier: 
                keyid:CC:FD:49:13:E5:FC:59:20:BE:FC:25:C3:5D:46:CD:3D:DF:A8:B5:A3
                DirName:/C=CN/ST=SH/L=shanghai/O=sh/OU=sh/CN=server/name=server/emailAddress=sh@cn.cn
                serial:C4:4F:33:16:3A:39:59:0A

            X509v3 Extended Key Usage: 
                TLS Web Client Authentication
            X509v3 Key Usage: 
                Digital Signature
    Signature Algorithm: sha256WithRSAEncryption
         a5:ef:7e:13:ca:4f:41:62:51:97:ee:4c:fd:fd:27:fb:b7:5f:
         d3:92:af:87:b4:86:43:08:f9:91:fa:ad:c3:da:ad:48:8b:1e:
         5c:91:17:f5:74:11:33:19:51:bc:6f:73:c8:70:c8:11:0c:8c:
         2e:8e:84:ed:f8:dd:c1:bd:e1:83:1c:54:4e:d4:0d:da:1d:5d:
         01:3d:7f:dd:54:e7:0a:f8:92:b4:51:98:f9:40:7b:e1:64:90:
         06:e8:8b:31:5d:ea:94:1e:98:bf:ca:7b:0e:e7:97:b7:7d:82:
         37:c1:0c:68:14:4e:d4:04:70:88:d5:5d:82:6e:7e:ef:a3:16:
         ec:aa:90:dc:b3:4f:81:15:b8:18:50:7c:34:d8:8c:b0:a5:a6:
         bc:24:6f:36:d8:16:bd:82:86:35:d2:09:6d:aa:a1:9a:d6:94:
         ad:2b:40:70:e2:31:62:a0:c4:95:bd:c8:87:d9:6c:a5:0a:33:
         19:80:53:91:59:8f:1c:72:bc:6b:ec:c7:00:d2:71:bd:0c:5a:
         ca:e8:ed:9f:ef:bc:db:05:60:bb:17:f6:1c:48:d4:4c:d0:b3:
         1f:1c:dc:18:b3:c2:26:e7:5f:ed:f4:8e:b5:1f:b5:6c:d3:bf:
         4e:92:7d:26:19:b1:da:cf:6f:a8:f1:46:3f:94:ce:3c:fa:76:
         07:06:18:06
-----BEGIN CERTIFICATE-----
MIIEvDCCA6SgAwIBAgIBAjANBgkqhkiG9w0BAQsFADCBgjELMAkGA1UEBhMCQ04x
CzAJBgNVBAgTAlNIMREwDwYDVQQHEwhzaGFuZ2hhaTELMAkGA1UEChMCc2gxCzAJ
BgNVBAsTAnNoMQ8wDQYDVQQDEwZzZXJ2ZXIxDzANBgNVBCkTBnNlcnZlcjEXMBUG
CSqGSIb3DQEJARYIc2hAY24uY24wHhcNMTUxMjA1MDMwMDU1WhcNMjUxMjAyMDMw
MDU1WjCBgjELMAkGA1UEBhMCQ04xCzAJBgNVBAgTAlNIMREwDwYDVQQHEwhzaGFu
Z2hhaTELMAkGA1UEChMCc2gxCzAJBgNVBAsTAnNoMQ8wDQYDVQQDEwZjbGllbnQx
DzANBgNVBCkTBnNlcnZlcjEXMBUGCSqGSIb3DQEJARYIc2hAY24uY24wggEiMA0G
CSqGSIb3DQEBAQUAA4IBDwAwggEKAoIBAQCnEyCHeqFr4mNK4iNWGQ8Tow9OKPxy
arwXrnPCiFSGf4p9NjlglzVdORI/iV428W++Pqxtk9abA+sch4+VTkXelASVnqyj
9SKARFOZ1Ihe0A7Y6azEv2GxkxRZ84u+D8uTn7o/dOLKjT7rJCWeu2+G1p4z0F1M
26wCITxCeTXdWZfkv9OHFLF4iD5OeVQL+gl7UnrdxUwSD4GuT1XiKnWlNO0M43fz
u/m4iW6LOZmVlTb1BXXc0p6Zn0DthXqxBgGktY8i3+z/gT3jjwWeyK1/qkv/wMQL
Ga8V/Oh8/zM09dKYBxBplfiVLREQeyDjS/Qy2uQ5yX/ai3UwnTkJjgKbAgMBAAGj
ggE5MIIBNTAJBgNVHRMEAjAAMC0GCWCGSAGG+EIBDQQgFh5FYXN5LVJTQSBHZW5l
cmF0ZWQgQ2VydGlmaWNhdGUwHQYDVR0OBBYEFJv3rLgYrgIAmxUoK2tUbrVV2ETX
MIG3BgNVHSMEga8wgayAFMz9SRPl/Fkgvvwlw11GzT3fqLWjoYGIpIGFMIGCMQsw
CQYDVQQGEwJDTjELMAkGA1UECBMCU0gxETAPBgNVBAcTCHNoYW5naGFpMQswCQYD
VQQKEwJzaDELMAkGA1UECxMCc2gxDzANBgNVBAMTBnNlcnZlcjEPMA0GA1UEKRMG
c2VydmVyMRcwFQYJKoZIhvcNAQkBFghzaEBjbi5jboIJAMRPMxY6OVkKMBMGA1Ud
JQQMMAoGCCsGAQUFBwMCMAsGA1UdDwQEAwIHgDANBgkqhkiG9w0BAQsFAAOCAQEA
pe9+E8pPQWJRl+5M/f0n+7df05Kvh7SGQwj5kfqtw9qtSIseXJEX9XQRMxlRvG9z
yHDIEQyMLo6E7fjdwb3hgxxUTtQN2h1dAT1/3VTnCviStFGY+UB74WSQBuiLMV3q
lB6Yv8p7DueXt32CN8EMaBRO1ARwiNVdgm5+76MW7KqQ3LNPgRW4GFB8NNiMsKWm
vCRvNtgWvYKGNdIJbaqhmtaUrStAcOIxYqDElb3Ih9lspQozGYBTkVmPHHK8a+zH
ANJxvQxayujtn++82wVguxf2HEjUTNCzHxzcGLPCJudf7fSOtR+1bNO/TpJ9Jhmx
2s9vqPFGP5TOPPp2BwYYBg==
-----END CERTIFICATE-----
